; Function Attrs: nounwind uwtable
define internal void @ssl_cf_destroy(ptr noundef %0, ptr noundef %1) #2 {
  %3 = getelementptr inbounds nuw i8, ptr %0, i64 16
  %4 = load ptr, ptr %3, align 8
  %5 = getelementptr inbounds nuw i8, ptr %4, i64 56
  %.sroa.0.0.copyload = load ptr, ptr %5, align 8
  store ptr %1, ptr %5, align 8
  %6 = load ptr, ptr %3, align 8, !nonnull !15, !noundef !15
  %7 = load ptr, ptr @Curl_ssl, align 8
  %8 = getelementptr inbounds nuw i8, ptr %7, i64 128
  %9 = load ptr, ptr %8, align 8
  tail call void %9(ptr noundef nonnull %0, ptr noundef %1) #18
  store i32 0, ptr %6, align 8
  %10 = getelementptr inbounds nuw i8, ptr %6, i64 8
  %11 = getelementptr inbounds nuw i8, ptr %6, i64 16
  %12 = load ptr, ptr %11, align 8
  %13 = load ptr, ptr %10, align 8
  %.not.i.i = icmp eq ptr %12, %13
  br i1 %.not.i.i, label %Curl_ssl_peer_cleanup.exit.i, label %14

14:                                               ; preds = %2
  %15 = load ptr, ptr @Curl_cfree, align 8
  tail call void %15(ptr noundef %12) #18
  br label %Curl_ssl_peer_cleanup.exit.i

Curl_ssl_peer_cleanup.exit.i:                     ; preds = %14, %2
  %16 = load ptr, ptr @Curl_cfree, align 8
  %17 = getelementptr inbounds nuw i8, ptr %6, i64 24
  %18 = load ptr, ptr %17, align 8
  tail call void %16(ptr noundef %18) #18
  %19 = load ptr, ptr @Curl_cfree, align 8
  %20 = load ptr, ptr %10, align 8
  tail call void %19(ptr noundef %20) #18
  %21 = getelementptr inbounds nuw i8, ptr %6, i64 32
  tail call void @llvm.memset.p0.i64(ptr noundef nonnull align 8 dereferenceable(24) %10, i8 0, i64 24, i1 false)
  %22 = load i8, ptr %21, align 8
  %23 = and i8 %22, -2
  store i8 %23, ptr %21, align 8
  %.pre = load ptr, ptr %3, align 8
  %24 = getelementptr inbounds nuw i8, ptr %0, i64 36
  %25 = load i8, ptr %24, align 4
  %26 = and i8 %25, -2
  store i8 %26, ptr %24, align 4
  %27 = getelementptr inbounds nuw i8, ptr %.pre, i64 56
  store ptr %.sroa.0.0.copyload, ptr %27, align 8
  %28 = load ptr, ptr %3, align 8
  %.not.i9 = icmp eq ptr %28, null
  br i1 %.not.i9, label %cf_ctx_free.exit, label %29

29:                                               ; preds = %Curl_ssl_peer_cleanup.exit.i
  %30 = load ptr, ptr @Curl_cfree, align 8
  %31 = getelementptr inbounds nuw i8, ptr %28, i64 48
  %32 = load ptr, ptr %31, align 8
  tail call void %30(ptr noundef %32) #18
  %33 = load ptr, ptr @Curl_cfree, align 8
  tail call void %33(ptr noundef nonnull %28) #18
  br label %cf_ctx_free.exit

cf_ctx_free.exit:                                 ; preds = %Curl_ssl_peer_cleanup.exit.i, %29
  store ptr null, ptr %3, align 8
  ret void
}